; Function Attrs: nounwind uwtable
define ptr @l_Lean_compileDecls_doCompile___lambda__4___boxed(ptr noundef %0, ptr noundef %1, ptr noundef %2, ptr noundef %3, ptr noundef %4, ptr noundef %5, ptr noundef %6) local_unnamed_addr #1 {
  %8 = ptrtoint ptr %1 to i64
  %9 = lshr i64 %8, 1
  %10 = trunc i64 %9 to i8
  %11 = and i64 %8, 1
  %.not = icmp eq i64 %11, 0
  br i1 %.not, label %12, label %lean_dec.exit10

12:                                               ; preds = %7
  %13 = load i32, ptr %1, align 4, !tbaa !4
  %14 = icmp sgt i32 %13, 1
  br i1 %14, label %15, label %17, !prof !11

15:                                               ; preds = %12
  %16 = add nsw i32 %13, -1
  store i32 %16, ptr %1, align 4, !tbaa !4
  br label %lean_dec.exit10

17:                                               ; preds = %12
  %.not.i = icmp eq i32 %13, 0
  br i1 %.not.i, label %lean_dec.exit10, label %18

18:                                               ; preds = %17
  tail call void @lean_dec_ref_cold(ptr noundef nonnull %1) #7
  br label %lean_dec.exit10

lean_dec.exit10:                                  ; preds = %18, %17, %15, %7
  %19 = tail call ptr @l_Lean_compileDecls_doCompile___lambda__4(ptr noundef %0, i8 noundef zeroext %10, ptr noundef %2, ptr poison, ptr noundef %4, ptr noundef %5, ptr noundef %6)
  %20 = ptrtoint ptr %3 to i64
  %21 = and i64 %20, 1
  %.not13 = icmp eq i64 %21, 0
  br i1 %.not13, label %22, label %lean_dec.exit

22:                                               ; preds = %lean_dec.exit10
  %23 = load i32, ptr %3, align 4, !tbaa !4
  %24 = icmp sgt i32 %23, 1
  br i1 %24, label %25, label %27, !prof !11

25:                                               ; preds = %22
  %26 = add nsw i32 %23, -1
  store i32 %26, ptr %3, align 4, !tbaa !4
  br label %lean_dec.exit

27:                                               ; preds = %22
  %.not.i11 = icmp eq i32 %23, 0
  br i1 %.not.i11, label %lean_dec.exit, label %28

28:                                               ; preds = %27
  tail call void @lean_dec_ref_cold(ptr noundef nonnull %3) #7
  br label %lean_dec.exit

lean_dec.exit:                                    ; preds = %28, %27, %25, %lean_dec.exit10
  ret ptr %19
}